; Function Attrs: mustprogress nofree norecurse nosync nounwind willreturn memory(argmem: readwrite) uwtable
define internal noundef zeroext i1 @"_ZNSt17_Function_handlerIFvRKN4llvm20MachineJumpTableInfoERKNS0_12MachineInstrElEZNS0_13CodeViewDebug25discoverJumpTableBranchesEPKNS0_15MachineFunctionEbE3$_0E10_M_managerERSt9_Any_dataRKSE_St18_Manager_operation"(ptr noundef nonnull writeonly align 8 captures(none) dereferenceable(16) %0, ptr noundef nonnull align 8 dereferenceable(16) %1, i32 noundef %2) #17 align 2 {
  switch i32 %2, label %"_ZNSt14_Function_base13_Base_managerIZN4llvm13CodeViewDebug25discoverJumpTableBranchesEPKNS1_15MachineFunctionEbE3$_0E10_M_managerERSt9_Any_dataRKS8_St18_Manager_operation.exit" [
    i32 1, label %4
    i32 0, label %5
    i32 2, label %6
  ]

4:                                                ; preds = %3
  store ptr %1, ptr %0, align 8
  br label %"_ZNSt14_Function_base13_Base_managerIZN4llvm13CodeViewDebug25discoverJumpTableBranchesEPKNS1_15MachineFunctionEbE3$_0E10_M_managerERSt9_Any_dataRKS8_St18_Manager_operation.exit"

5:                                                ; preds = %3
  store ptr null, ptr %0, align 8
  br label %"_ZNSt14_Function_base13_Base_managerIZN4llvm13CodeViewDebug25discoverJumpTableBranchesEPKNS1_15MachineFunctionEbE3$_0E10_M_managerERSt9_Any_dataRKS8_St18_Manager_operation.exit"

6:                                                ; preds = %3
  %.val = load i64, ptr %1, align 8
  store i64 %.val, ptr %0, align 8
  br label %"_ZNSt14_Function_base13_Base_managerIZN4llvm13CodeViewDebug25discoverJumpTableBranchesEPKNS1_15MachineFunctionEbE3$_0E10_M_managerERSt9_Any_dataRKS8_St18_Manager_operation.exit"

"_ZNSt14_Function_base13_Base_managerIZN4llvm13CodeViewDebug25discoverJumpTableBranchesEPKNS1_15MachineFunctionEbE3$_0E10_M_managerERSt9_Any_dataRKS8_St18_Manager_operation.exit": ; preds = %3, %6, %5, %4
  ret i1 false
}